; Function Attrs: nounwind uwtable
define dso_local void @OutputPluginUpdateProgress(ptr noundef %0, i1 noundef zeroext %1) local_unnamed_addr #0 {
  %3 = getelementptr inbounds nuw i8, ptr %0, i64 248
  %4 = load ptr, ptr %3, align 8
  %.not = icmp eq ptr %4, null
  br i1 %.not, label %10, label %5

5:                                                ; preds = %2
  %6 = getelementptr inbounds nuw i8, ptr %0, i64 288
  %7 = load i64, ptr %6, align 8
  %8 = getelementptr inbounds nuw i8, ptr %0, i64 296
  %9 = load i32, ptr %8, align 8
  tail call void %4(ptr noundef nonnull %0, i64 noundef %7, i32 noundef %9, i1 noundef zeroext %1) #10
  br label %10

10:                                               ; preds = %2, %5
  ret void
}